target datalayout = "e-m:e-p270:32:32-p271:32:32-p272:64:64-i64:64-i128:128-f80:128-n8:16:32:64-S128"
target triple = "x86_64-pc-linux-gnu"

%class.QString = type { %struct.QArrayDataPointer }
%struct.QArrayDataPointer = type { ptr, ptr, i64 }
%class.QPen = type { ptr }
%class.SequenceDiagram = type { %class.QCPAbstractPlottable, ptr, ptr, ptr, ptr, ptr, i32, double }
%class.QCPAbstractPlottable = type { %class.QCPLayerable.base, %class.QString, i8, i8, %class.QPen, %class.QBrush, %class.QPointer.2, %class.QPointer.2, i32, %class.QCPDataSelection, ptr }
%class.QCPLayerable.base = type <{ %class.QObject, i8, [7 x i8], ptr, %class.QPointer, ptr, i8 }>
%class.QObject = type { ptr, %class.QScopedPointer }
%class.QScopedPointer = type { ptr }
%class.QPointer = type { %class.QWeakPointer }
%class.QWeakPointer = type { ptr, ptr }
%class.QBrush = type { %"class.std::unique_ptr" }
%"class.std::unique_ptr" = type { %"struct.std::__uniq_ptr_data" }
%"struct.std::__uniq_ptr_data" = type { %"class.std::__uniq_ptr_impl" }
%"class.std::__uniq_ptr_impl" = type { %"class.std::tuple" }
%"class.std::tuple" = type { %"struct.std::_Tuple_impl" }
%"struct.std::_Tuple_impl" = type { %"struct.std::_Head_base.1" }
%"struct.std::_Head_base.1" = type { ptr }
%class.QPointer.2 = type { %class.QWeakPointer }
%class.QCPDataSelection = type { %class.QList }
%class.QList = type { %struct.QArrayDataPointer.3 }
%struct.QArrayDataPointer.3 = type { ptr, ptr, i64 }
%class.QMultiMap = type { %"class.QtPrivate::QExplicitlySharedDataPointerV2" }
%"class.QtPrivate::QExplicitlySharedDataPointerV2" = type { ptr }
%class.QCPRange = type { double, double }
%class.QMapData = type { %class.QSharedData, %"class.std::multimap" }
%class.QSharedData = type { %class.QAtomicInt }
%class.QAtomicInt = type { %class.QAtomicInteger }
%class.QAtomicInteger = type { %class.QBasicAtomicInteger }
%class.QBasicAtomicInteger = type { %"struct.std::atomic" }
%"struct.std::atomic" = type { %"struct.std::__atomic_base" }
%"struct.std::__atomic_base" = type { i32 }
%"class.std::multimap" = type { %"class.std::_Rb_tree" }
%"class.std::_Rb_tree" = type { %"struct.std::_Rb_tree<double, std::pair<const double, WSCPSeqData>, std::_Select1st<std::pair<const double, WSCPSeqData>>, std::less<double>>::_Rb_tree_impl" }
%"struct.std::_Rb_tree<double, std::pair<const double, WSCPSeqData>, std::_Select1st<std::pair<const double, WSCPSeqData>>, std::less<double>>::_Rb_tree_impl" = type { %"struct.std::_Rb_tree_key_compare", %"struct.std::_Rb_tree_header" }
%"struct.std::_Rb_tree_key_compare" = type { %"struct.std::less" }
%"struct.std::less" = type { i8 }
%"struct.std::_Rb_tree_header" = type { %"struct.std::_Rb_tree_node_base", i64 }
%"struct.std::_Rb_tree_node_base" = type { i32, ptr, ptr, ptr }

; Function Attrs: mustprogress nounwind uwtable
define linkonce_odr noundef i64 @_ZNKSt8_Rb_treeIdSt4pairIKd11WSCPSeqDataESt10_Select1stIS3_ESt4lessIdESaIS3_EE4sizeEv(ptr noundef nonnull align 8 dereferenceable(48) %0) #0 comdat align 2 {
  %2 = alloca ptr, align 8
  store ptr %0, ptr %2, align 8
  %3 = load ptr, ptr %2, align 8
  %4 = getelementptr inbounds %"class.std::_Rb_tree", ptr %3, i32 0, i32 0
  %5 = getelementptr inbounds i8, ptr %4, i64 8
  %6 = getelementptr inbounds %"struct.std::_Rb_tree_header", ptr %5, i32 0, i32 1
  %7 = load i64, ptr %6, align 8
  ret i64 %7
}

; Function Attrs: mustprogress nounwind uwtable
define linkonce_odr noundef i64 @_ZNKSt8multimapId11WSCPSeqDataSt4lessIdESaISt4pairIKdS0_EEE4sizeEv(ptr noundef nonnull align 8 dereferenceable(48) %0) #0 comdat align 2 {
  %2 = alloca ptr, align 8
  store ptr %0, ptr %2, align 8
  %3 = load ptr, ptr %2, align 8
  %4 = getelementptr inbounds %"class.std::multimap", ptr %3, i32 0, i32 0
  %5 = call noundef i64 @_ZNKSt8_Rb_treeIdSt4pairIKd11WSCPSeqDataESt10_Select1stIS3_ESt4lessIdESaIS3_EE4sizeEv(ptr noundef nonnull align 8 dereferenceable(48) %4) #15
  ret i64 %5
}

; Function Attrs: mustprogress nounwind uwtable
define linkonce_odr noundef ptr @_ZNK9QtPrivate30QExplicitlySharedDataPointerV2I8QMapDataISt8multimapId11WSCPSeqDataSt4lessIdESaISt4pairIKdS3_EEEEEptEv(ptr noundef nonnull align 8 dereferenceable(8) %0) #0 comdat align 2 {
  %2 = alloca ptr, align 8
  store ptr %0, ptr %2, align 8
  %3 = load ptr, ptr %2, align 8
  %4 = getelementptr inbounds %"class.QtPrivate::QExplicitlySharedDataPointerV2", ptr %3, i32 0, i32 0
  %5 = load ptr, ptr %4, align 8
  ret ptr %5
}

; Function Attrs: mustprogress nounwind uwtable
define linkonce_odr noundef zeroext i1 @_ZNK9QtPrivate30QExplicitlySharedDataPointerV2I8QMapDataISt8multimapId11WSCPSeqDataSt4lessIdESaISt4pairIKdS3_EEEEEcvbEv(ptr noundef nonnull align 8 dereferenceable(8) %0) #0 comdat align 2 {
  %2 = alloca ptr, align 8
  store ptr %0, ptr %2, align 8
  %3 = load ptr, ptr %2, align 8
  %4 = getelementptr inbounds %"class.QtPrivate::QExplicitlySharedDataPointerV2", ptr %3, i32 0, i32 0
  %5 = load ptr, ptr %4, align 8
  %6 = icmp ne ptr %5, null
  ret i1 %6
}

; Function Attrs: mustprogress uwtable
define linkonce_odr noundef i64 @_ZNK9QMultiMapId11WSCPSeqDataE4sizeEv(ptr noundef nonnull align 8 dereferenceable(8) %0) #1 comdat align 2 {
  %2 = alloca ptr, align 8
  store ptr %0, ptr %2, align 8
  %3 = load ptr, ptr %2, align 8
  %4 = getelementptr inbounds %class.QMultiMap, ptr %3, i32 0, i32 0
  %5 = call noundef zeroext i1 @_ZNK9QtPrivate30QExplicitlySharedDataPointerV2I8QMapDataISt8multimapId11WSCPSeqDataSt4lessIdESaISt4pairIKdS3_EEEEEcvbEv(ptr noundef nonnull align 8 dereferenceable(8) %4) #15
  br i1 %5, label %6, label %11

6:                                                ; preds = %1
  %7 = getelementptr inbounds %class.QMultiMap, ptr %3, i32 0, i32 0
  %8 = call noundef ptr @_ZNK9QtPrivate30QExplicitlySharedDataPointerV2I8QMapDataISt8multimapId11WSCPSeqDataSt4lessIdESaISt4pairIKdS3_EEEEEptEv(ptr noundef nonnull align 8 dereferenceable(8) %7)
  %9 = getelementptr inbounds %class.QMapData, ptr %8, i32 0, i32 1
  %10 = call noundef i64 @_ZNKSt8multimapId11WSCPSeqDataSt4lessIdESaISt4pairIKdS0_EEE4sizeEv(ptr noundef nonnull align 8 dereferenceable(48) %9) #15
  br label %12

11:                                               ; preds = %1
  br label %12

12:                                               ; preds = %11, %6
  %13 = phi i64 [ %10, %6 ], [ 0, %11 ]
  ret i64 %13
}

; Function Attrs: mustprogress uwtable
define { double, double } @_ZNK15SequenceDiagram13getValueRangeERbN3QCP10SignDomainERK8QCPRange(ptr noundef nonnull align 8 dereferenceable(240) %0, ptr noundef nonnull align 1 dereferenceable(1) %1, i32 noundef %2, ptr noundef nonnull align 8 dereferenceable(16) %3) unnamed_addr #1 align 2 {
  %5 = alloca %class.QCPRange, align 8
  %6 = alloca ptr, align 8
  %7 = alloca ptr, align 8
  %8 = alloca i32, align 4
  %9 = alloca ptr, align 8
  %10 = alloca i8, align 1
  store ptr %0, ptr %6, align 8
  store ptr %1, ptr %7, align 8
  store i32 %2, ptr %8, align 4
  store ptr %3, ptr %9, align 8
  %11 = load ptr, ptr %6, align 8
  call void @_ZN8QCPRangeC1Ev(ptr noundef nonnull align 8 dereferenceable(16) %5)
  store i8 0, ptr %10, align 1
  %12 = getelementptr inbounds %class.SequenceDiagram, ptr %11, i32 0, i32 5
  %13 = load ptr, ptr %12, align 8
  %14 = icmp ne ptr %13, null
  br i1 %14, label %15, label %22

15:                                               ; preds = %4
  %16 = getelementptr inbounds %class.QCPRange, ptr %5, i32 0, i32 0
  store double 0.000000e+00, ptr %16, align 8
  %17 = getelementptr inbounds %class.SequenceDiagram, ptr %11, i32 0, i32 4
  %18 = load ptr, ptr %17, align 8
  %19 = call noundef i64 @_ZNK9QMultiMapId11WSCPSeqDataE4sizeEv(ptr noundef nonnull align 8 dereferenceable(8) %18)
  %20 = sitofp i64 %19 to double
  %21 = getelementptr inbounds %class.QCPRange, ptr %5, i32 0, i32 1
  store double %20, ptr %21, align 8
  store i8 1, ptr %10, align 1
  br label %22

22:                                               ; preds = %15, %4
  %23 = load i8, ptr %10, align 1
  %24 = trunc i8 %23 to i1
  %25 = load ptr, ptr %7, align 8
  %26 = zext i1 %24 to i8
  store i8 %26, ptr %25, align 1
  %27 = load { double, double }, ptr %5, align 8
  ret { double, double } %27
}