; Function Attrs: mustprogress uwtable
define { double, double } @_ZNK15SequenceDiagram13getValueRangeERbN3QCP10SignDomainERK8QCPRange(ptr nocapture noundef nonnull readonly align 8 dereferenceable(240) %0, ptr nocapture noundef nonnull writeonly align 1 dereferenceable(1) %1, i32 noundef %2, ptr nocapture noundef nonnull readnone align 8 dereferenceable(16) %3) unnamed_addr #1 align 2 {
  %5 = alloca %class.QCPRange, align 8
  call void @_ZN8QCPRangeC1Ev(ptr noundef nonnull align 8 dereferenceable(16) %5)
  %6 = getelementptr inbounds i8, ptr %0, i64 216
  %7 = load ptr, ptr %6, align 8
  %.not = icmp ne ptr %7, null
  br i1 %.not, label %8, label %._crit_edge

._crit_edge:                                      ; preds = %4
  %.fca.0.load.pre = load double, ptr %5, align 8
  %.fca.1.gep.phi.trans.insert = getelementptr inbounds i8, ptr %5, i64 8
  %.fca.1.load.pre = load double, ptr %.fca.1.gep.phi.trans.insert, align 8
  br label %_ZNK9QMultiMapId11WSCPSeqDataE4sizeEv.exit

8:                                                ; preds = %4
  store double 0.000000e+00, ptr %5, align 8
  %9 = getelementptr inbounds i8, ptr %0, i64 208
  %10 = load ptr, ptr %9, align 8
  %11 = load ptr, ptr %10, align 8
  %.not.i = icmp eq ptr %11, null
  br i1 %.not.i, label %_ZNK9QMultiMapId11WSCPSeqDataE4sizeEv.exit, label %12

12:                                               ; preds = %8
  %13 = getelementptr inbounds i8, ptr %11, i64 48
  %14 = load i64, ptr %13, align 8
  %15 = sitofp i64 %14 to double
  br label %_ZNK9QMultiMapId11WSCPSeqDataE4sizeEv.exit

_ZNK9QMultiMapId11WSCPSeqDataE4sizeEv.exit:       ; preds = %12, %8, %._crit_edge
  %.fca.1.load = phi double [ %.fca.1.load.pre, %._crit_edge ], [ %15, %12 ], [ 0.000000e+00, %8 ]
  %.fca.0.load = phi double [ %.fca.0.load.pre, %._crit_edge ], [ 0.000000e+00, %12 ], [ 0.000000e+00, %8 ]
  %16 = zext i1 %.not to i8
  store i8 %16, ptr %1, align 1
  %.fca.0.insert = insertvalue { double, double } poison, double %.fca.0.load, 0
  %.fca.1.insert = insertvalue { double, double } %.fca.0.insert, double %.fca.1.load, 1
  ret { double, double } %.fca.1.insert
}